Certificate:
    Data:
        Version: 3 (0x2)
        Serial Number: 4098 (0x1002)
        Signature Algorithm: sha1WithRSAEncryption
        Issuer: C=US, ST=New-York, L=Syracuse, O=Seed, OU=Internet Security, CN=Justin Lathrop/emailAddress=jelathrop@gmail.com
        Validity
            Not Before: Apr 23 05:16:40 2013 GMT
            Not After : Apr 23 05:16:40 2014 GMT
        Subject: C=US, ST=New-York, O=Seed, OU=Internet Security, CN=pkilabserver.com/emailAddress=jelathrop@gmail.com
        Subject Public Key Info:
            Public Key Algorithm: rsaEncryption
            RSA Public Key: (1024 bit)
                Modulus (1024 bit):
                    00:c0:b3:2f:e3:45:23:12:85:61:fe:6a:d7:f6:62:
                    99:13:61:f2:3d:de:51:e0:1a:45:97:ff:4c:df:a8:
                    a2:7e:80:9d:8b:30:54:09:31:8c:d5:4e:f2:63:32:
                    e2:65:1e:b4:20:3c:8a:3f:20:70:00:f4:c9:c9:e2:
                    3b:6f:d7:55:2a:0a:d4:ec:c0:27:ca:db:5f:9a:cf:
                    f9:3d:08:78:55:c6:60:31:4f:43:8a:4a:9a:03:08:
                    43:50:b7:80:cf:dc:11:33:b9:c6:84:18:df:c4:7c:
                    f3:2a:61:b3:23:73:1f:0c:e9:d7:8c:4c:db:06:c3:
                    0e:33:59:50:ba:67:c4:c6:7f
                Exponent: 65537 (0x10001)
        X509v3 extensions:
            X509v3 Basic Constraints: 
                CA:FALSE
            Netscape Comment: 
                OpenSSL Generated Certificate
            X509v3 Subject Key Identifier: 
                0E:91:60:4F:86:F9:1E:56:A7:23:9D:A9:2C:87:6A:11:1F:17:76:88
            X509v3 Authority Key Identifier: 
                keyid:AA:04:92:3F:73:CE:1C:81:E5:81:67:48:A4:83:6B:3A:9A:56:DB:7F

    Signature Algorithm: sha1WithRSAEncryption
        52:a2:e9:a7:ed:64:44:3c:b0:1f:86:67:77:00:24:01:e9:72:
        ee:3c:74:2d:61:9b:7a:b8:b4:1e:84:07:c9:ed:9e:de:ba:33:
        af:8b:bb:19:42:88:42:06:44:e7:45:45:4d:be:3f:65:bb:96:
        d1:50:26:2e:c8:3b:5f:86:37:f9:72:d0:02:46:70:f1:63:ef:
        a9:66:4f:60:40:21:6f:7a:35:fa:02:63:68:29:35:35:35:c1:
        ba:1a:6c:33:76:3f:a8:6c:96:57:bc:30:06:01:cb:2f:76:73:
        f8:c0:ae:09:c8:09:fe:61:68:d1:d6:30:84:d1:1d:ae:6f:99:
        89:de
-----BEGIN CERTIFICATE-----
MIIDGTCCAoKgAwIBAgICEAIwDQYJKoZIhvcNAQEFBQAwgZsxCzAJBgNVBAYTAlVT
MREwDwYDVQQIEwhOZXctWW9yazERMA8GA1UEBxMIU3lyYWN1c2UxDTALBgNVBAoT
BFNlZWQxGjAYBgNVBAsTEUludGVybmV0IFNlY3VyaXR5MRcwFQYDVQQDEw5KdXN0
aW4gTGF0aHJvcDEiMCAGCSqGSIb3DQEJARYTamVsYXRocm9wQGdtYWlsLmNvbTAe
Fw0xMzA0MjMwNTE2NDBaFw0xNDA0MjMwNTE2NDBaMIGKMQswCQYDVQQGEwJVUzER
MA8GA1UECBMITmV3LVlvcmsxDTALBgNVBAoTBFNlZWQxGjAYBgNVBAsTEUludGVy
bmV0IFNlY3VyaXR5MRkwFwYDVQQDExBwa2lsYWJzZXJ2ZXIuY29tMSIwIAYJKoZI
hvcNAQkBFhNqZWxhdGhyb3BAZ21haWwuY29tMIGfMA0GCSqGSIb3DQEBAQUAA4GN
ADCBiQKBgQDAsy/jRSMShWH+atf2YpkTYfI93lHgGkWX/0zfqKJ+gJ2LMFQJMYzV
TvJjMuJlHrQgPIo/IHAA9MnJ4jtv11UqCtTswCfK21+az/k9CHhVxmAxT0OKSpoD
CENQt4DP3BEzucaEGN/EfPMqYbMjcx8M6deMTNsGww4zWVC6Z8TGfwIDAQABo3sw
eTAJBgNVHRMEAjAAMCwGCWCGSAGG+EIBDQQfFh1PcGVuU1NMIEdlbmVyYXRlZCBD
ZXJ0aWZpY2F0ZTAdBgNVHQ4EFgQUDpFgT4b5HlanI52pLIdqER8XdogwHwYDVR0j
BBgwFoAUqgSSP3POHIHlgWdIpINrOppW238wDQYJKoZIhvcNAQEFBQADgYEAUqLp
p+1kRDywH4ZndwAkAely7jx0LWGberi0HoQHye2e3rozr4u7GUKIQgZE50VFTb4/
ZbuW0VAmLsg7X4Y3+XLQAkZw8WPvqWZPYEAhb3o1+gJjaCk1NTXBuhpsM3Y/qGyW
V7wwBgHLL3Zz+MCuCcgJ/mFo0dYwhNEdrm+Zid4=
-----END CERTIFICATE-----
