Certificate:
    Data:
        Version: 3 (0x2)
        Serial Number: 4097 (0x1001)
        Signature Algorithm: sha1WithRSAEncryption
        Issuer: C=US, ST=New-York, L=Syracuse, O=Seed, OU=Internet Security, CN=Justin Lathrop/emailAddress=jelathrop@gmail.com
        Validity
            Not Before: Apr 22 20:02:09 2013 GMT
            Not After : Apr 22 20:02:09 2014 GMT
        Subject: C=US, ST=New-York, O=Seed, CN=pkilabserver.com/emailAddress=jelathrop@gmail.com
        Subject Public Key Info:
            Public Key Algorithm: rsaEncryption
            RSA Public Key: (1024 bit)
                Modulus (1024 bit):
                    00:97:c6:1f:7c:06:9f:93:5a:af:bb:a3:eb:f4:f6:
                    03:23:a2:21:bb:02:31:3c:6e:26:e3:e4:94:00:97:
                    67:df:3b:06:44:e3:f2:5f:9c:8c:54:66:2b:dc:25:
                    44:d0:fe:6c:51:30:a2:51:22:f2:4f:6a:6d:86:5a:
                    ad:be:7c:dc:e7:24:de:e6:e7:9e:ca:f2:22:6a:fb:
                    e4:ac:e9:45:fc:2c:0a:67:cc:2f:e1:f4:a4:f7:0c:
                    f7:c0:e2:3e:76:ed:30:45:b4:05:fe:d7:35:08:99:
                    97:c3:8a:a6:99:ef:20:c1:44:da:81:af:3c:df:88:
                    11:68:d7:b3:3c:b7:05:62:ad
                Exponent: 65537 (0x10001)
        X509v3 extensions:
            X509v3 Basic Constraints: 
                CA:FALSE
            Netscape Comment: 
                OpenSSL Generated Certificate
            X509v3 Subject Key Identifier: 
                B4:A1:FD:94:BA:2A:BA:C8:39:D9:45:2E:C4:2A:2F:13:33:8A:6C:C1
            X509v3 Authority Key Identifier: 
                keyid:AA:04:92:3F:73:CE:1C:81:E5:81:67:48:A4:83:6B:3A:9A:56:DB:7F

    Signature Algorithm: sha1WithRSAEncryption
        a7:5d:43:28:9d:39:4a:36:85:6e:92:34:0c:83:7e:4e:96:c4:
        61:4d:ed:95:1a:96:51:dd:e5:ec:4b:7c:99:2b:37:96:f3:b9:
        09:a3:43:4b:fe:a0:c5:44:f7:62:36:52:dd:48:38:3e:e8:da:
        eb:c9:0b:be:b0:5f:e3:f5:36:cd:f0:6e:88:ec:f0:81:16:1a:
        f8:e4:62:82:a3:07:b7:4c:ab:57:a5:d8:88:07:c6:09:32:d5:
        b0:64:2d:9c:97:df:ac:8c:2e:d5:7d:74:52:c0:55:ff:45:aa:
        05:98:ad:91:9a:10:ec:97:da:3d:28:62:c5:76:90:af:a7:16:
        90:b8
-----BEGIN CERTIFICATE-----
MIIC/DCCAmWgAwIBAgICEAEwDQYJKoZIhvcNAQEFBQAwgZsxCzAJBgNVBAYTAlVT
MREwDwYDVQQIEwhOZXctWW9yazERMA8GA1UEBxMIU3lyYWN1c2UxDTALBgNVBAoT
BFNlZWQxGjAYBgNVBAsTEUludGVybmV0IFNlY3VyaXR5MRcwFQYDVQQDEw5KdXN0
aW4gTGF0aHJvcDEiMCAGCSqGSIb3DQEJARYTamVsYXRocm9wQGdtYWlsLmNvbTAe
Fw0xMzA0MjIyMDAyMDlaFw0xNDA0MjIyMDAyMDlaMG4xCzAJBgNVBAYTAlVTMREw
DwYDVQQIEwhOZXctWW9yazENMAsGA1UEChMEU2VlZDEZMBcGA1UEAxMQcGtpbGFi
c2VydmVyLmNvbTEiMCAGCSqGSIb3DQEJARYTamVsYXRocm9wQGdtYWlsLmNvbTCB
nzANBgkqhkiG9w0BAQEFAAOBjQAwgYkCgYEAl8YffAafk1qvu6Pr9PYDI6IhuwIx
PG4m4+SUAJdn3zsGROPyX5yMVGYr3CVE0P5sUTCiUSLyT2pthlqtvnzc5yTe5uee
yvIiavvkrOlF/CwKZ8wv4fSk9wz3wOI+du0wRbQF/tc1CJmXw4qmme8gwUTaga88
34gRaNezPLcFYq0CAwEAAaN7MHkwCQYDVR0TBAIwADAsBglghkgBhvhCAQ0EHxYd
T3BlblNTTCBHZW5lcmF0ZWQgQ2VydGlmaWNhdGUwHQYDVR0OBBYEFLSh/ZS6KrrI
OdlFLsQqLxMzimzBMB8GA1UdIwQYMBaAFKoEkj9zzhyB5YFnSKSDazqaVtt/MA0G
CSqGSIb3DQEBBQUAA4GBAKddQyidOUo2hW6SNAyDfk6WxGFN7ZUallHd5exLfJkr
N5bzuQmjQ0v+oMVE92I2Ut1IOD7o2uvJC76wX+P1Ns3wbojs8IEWGvjkYoKjB7dM
q1el2IgHxgky1bBkLZyX36yMLtV9dFLAVf9FqgWYrZGaEOyX2j0oYsV2kK+nFpC4
-----END CERTIFICATE-----
